; Function Attrs: nounwind uwtable
define dso_local i32 @LZ4_compress_HC(ptr noundef %0, ptr noundef %1, i32 noundef %2, i32 noundef %3, i32 noundef %4) local_unnamed_addr #4 {
  %6 = alloca i32, align 4
  %7 = tail call noalias dereferenceable_or_null(262200) ptr @malloc(i64 noundef 262200) #19
  %8 = icmp eq ptr %7, null
  br i1 %8, label %27, label %9

9:                                                ; preds = %5
  %10 = ptrtoint ptr %7 to i64
  %11 = and i64 %10, 7
  %.not.i.i = icmp eq i64 %11, 0
  br i1 %.not.i.i, label %LZ4_compress_HC_extStateHC_fastReset.exit.i, label %LZ4_compress_HC_extStateHC.exit

LZ4_compress_HC_extStateHC_fastReset.exit.i:      ; preds = %9
  tail call void @llvm.memset.p0.i64(ptr noundef nonnull align 8 dereferenceable(262192) %7, i8 0, i64 262184, i1 false)
  %12 = getelementptr inbounds nuw i8, ptr %7, i64 262180
  call void @llvm.lifetime.start.p0(i64 4, ptr nonnull %6)
  store i32 %2, ptr %6, align 4, !tbaa !17
  %13 = getelementptr inbounds nuw i8, ptr %7, i64 262184
  store ptr null, ptr %13, align 8, !tbaa !32
  %14 = icmp slt i32 %4, 1
  %15 = tail call i32 @llvm.umin.i32(i32 %4, i32 12)
  %16 = trunc nuw nsw i32 %15 to i16
  %17 = select i1 %14, i16 9, i16 %16
  store i16 %17, ptr %12, align 4, !tbaa !26
  %18 = getelementptr inbounds nuw i8, ptr %7, i64 262144
  %19 = getelementptr inbounds nuw i8, ptr %7, i64 262152
  %20 = getelementptr inbounds nuw i8, ptr %7, i64 262168
  %21 = getelementptr inbounds nuw i8, ptr %7, i64 262176
  store i32 65536, ptr %21, align 8, !tbaa !33
  store ptr %0, ptr %19, align 8, !tbaa !13
  store ptr %0, ptr %18, align 8, !tbaa !4
  %22 = getelementptr inbounds nuw i8, ptr %7, i64 262160
  store ptr %0, ptr %22, align 8, !tbaa !34
  store i32 65536, ptr %20, align 8, !tbaa !14
  %23 = getelementptr inbounds nuw i8, ptr %7, i64 262172
  store i32 65536, ptr %23, align 4, !tbaa !35
  %24 = tail call i32 @LZ4_compressBound(i32 noundef %2) #18
  %25 = icmp slt i32 %3, %24
  %..i.i = zext i1 %25 to i32
  %26 = call fastcc i32 @LZ4HC_compress_generic(ptr noundef nonnull %7, ptr noundef %0, ptr noundef %1, ptr noundef nonnull %6, i32 noundef %3, i32 noundef %4, i32 noundef %..i.i)
  call void @llvm.lifetime.end.p0(i64 4, ptr nonnull %6)
  br label %LZ4_compress_HC_extStateHC.exit

LZ4_compress_HC_extStateHC.exit:                  ; preds = %9, %LZ4_compress_HC_extStateHC_fastReset.exit.i
  %.0.i = phi i32 [ %26, %LZ4_compress_HC_extStateHC_fastReset.exit.i ], [ 0, %9 ]
  tail call void @free(ptr noundef nonnull %7) #18
  br label %27

27:                                               ; preds = %5, %LZ4_compress_HC_extStateHC.exit
  %.0 = phi i32 [ %.0.i, %LZ4_compress_HC_extStateHC.exit ], [ 0, %5 ]
  ret i32 %.0
}